; Function Attrs: mustprogress nofree norecurse nosync nounwind willreturn memory(argmem: readwrite) uwtable
define void @_ZN7rocksdb26TransactionLogIteratorImpl8GetBatchEv(ptr noalias nocapture writeonly sret(%"struct.rocksdb::BatchResult") align 8 %agg.result, ptr nocapture noundef nonnull align 8 dereferenceable(208) %this) unnamed_addr #8 align 2 personality ptr @__gxx_personality_v0 {
_ZNSt10unique_ptrIN7rocksdb10WriteBatchESt14default_deleteIS1_EEaSEOS4_.exit:
  %current_batch_seq_ = getelementptr inbounds i8, ptr %this, i64 192
  %0 = load i64, ptr %current_batch_seq_, align 8
  store i64 %0, ptr %agg.result, align 8
  %current_batch_ = getelementptr inbounds i8, ptr %this, i64 120
  %writeBatchPtr = getelementptr inbounds i8, ptr %agg.result, i64 8
  %1 = load ptr, ptr %current_batch_, align 8
  store ptr null, ptr %current_batch_, align 8
  store ptr %1, ptr %writeBatchPtr, align 8
  ret void
}